; ModuleID = '24/1440.c'
source_filename = "24/1440.c"
target datalayout = "e-m:e-p270:32:32-p271:32:32-p272:64:64-i64:64-f80:128-n8:16:32:64-S128"
target triple = "x86_64-pc-linux-gnu"

@.str = private unnamed_addr constant [7 x i8] c"%s\0A%s\0A\00", align 1

; Function Attrs: noinline nounwind uwtable
define dso_local i32 @main() #0 {
  %1 = alloca i32, align 4
  %2 = alloca [25000 x i8], align 16
  %3 = alloca [50 x [100 x i8]], align 16
  %4 = alloca i32, align 4
  %5 = alloca i32, align 4
  %6 = alloca i32, align 4
  %7 = alloca i32, align 4
  %8 = alloca i32, align 4
  %9 = alloca i32, align 4
  %10 = alloca i32, align 4
  %11 = alloca i32, align 4
  %12 = alloca i32, align 4
  store i32 0, i32* %1, align 4
  store i32 0, i32* %7, align 4
  store i32 2147483647, i32* %8, align 4
  %13 = getelementptr inbounds [25000 x i8], [25000 x i8]* %2, i64 0, i64 0
  %14 = call i32 (i8*, ...) bitcast (i32 (...)* @gets to i32 (i8*, ...)*)(i8* %13)
  %15 = getelementptr inbounds [25000 x i8], [25000 x i8]* %2, i64 0, i64 0
  %16 = call i64 @strlen(i8* %15) #3
  %17 = trunc i64 %16 to i32
  store i32 %17, i32* %9, align 4
  store i32 0, i32* %10, align 4
  store i32 0, i32* %11, align 4
  store i32 0, i32* %12, align 4
  br label %18

18:                                               ; preds = %60, %0
  %19 = load i32, i32* %12, align 4
  %20 = load i32, i32* %9, align 4
  %21 = add nsw i32 %20, 1
  %22 = icmp slt i32 %19, %21
  br i1 %22, label %23, label %63

23:                                               ; preds = %18
  %24 = load i32, i32* %12, align 4
  %25 = sext i32 %24 to i64
  %26 = getelementptr inbounds [25000 x i8], [25000 x i8]* %2, i64 0, i64 %25
  %27 = load i8, i8* %26, align 1
  %28 = sext i8 %27 to i32
  %29 = icmp ne i32 %28, 32
  br i1 %29, label %30, label %50

30:                                               ; preds = %23
  %31 = load i32, i32* %12, align 4
  %32 = sext i32 %31 to i64
  %33 = getelementptr inbounds [25000 x i8], [25000 x i8]* %2, i64 0, i64 %32
  %34 = load i8, i8* %33, align 1
  %35 = sext i8 %34 to i32
  %36 = icmp ne i32 %35, 0
  br i1 %36, label %37, label %50

37:                                               ; preds = %30
  %38 = load i32, i32* %12, align 4
  %39 = sext i32 %38 to i64
  %40 = getelementptr inbounds [25000 x i8], [25000 x i8]* %2, i64 0, i64 %39
  %41 = load i8, i8* %40, align 1
  %42 = load i32, i32* %10, align 4
  %43 = sext i32 %42 to i64
  %44 = getelementptr inbounds [50 x [100 x i8]], [50 x [100 x i8]]* %3, i64 0, i64 %43
  %45 = load i32, i32* %11, align 4
  %46 = sext i32 %45 to i64
  %47 = getelementptr inbounds [100 x i8], [100 x i8]* %44, i64 0, i64 %46
  store i8 %41, i8* %47, align 1
  %48 = load i32, i32* %11, align 4
  %49 = add nsw i32 %48, 1
  store i32 %49, i32* %11, align 4
  br label %59

50:                                               ; preds = %30, %23
  %51 = load i32, i32* %10, align 4
  %52 = sext i32 %51 to i64
  %53 = getelementptr inbounds [50 x [100 x i8]], [50 x [100 x i8]]* %3, i64 0, i64 %52
  %54 = load i32, i32* %11, align 4
  %55 = sext i32 %54 to i64
  %56 = getelementptr inbounds [100 x i8], [100 x i8]* %53, i64 0, i64 %55
  store i8 0, i8* %56, align 1
  %57 = load i32, i32* %10, align 4
  %58 = add nsw i32 %57, 1
  store i32 %58, i32* %10, align 4
  store i32 0, i32* %11, align 4
  br label %59

59:                                               ; preds = %50, %37
  br label %60

60:                                               ; preds = %59
  %61 = load i32, i32* %12, align 4
  %62 = add nsw i32 %61, 1
  store i32 %62, i32* %12, align 4
  br label %18

63:                                               ; preds = %18
  store i32 0, i32* %12, align 4
  br label %64

64:                                               ; preds = %89, %63
  %65 = load i32, i32* %12, align 4
  %66 = load i32, i32* %10, align 4
  %67 = icmp slt i32 %65, %66
  br i1 %67, label %68, label %92

68:                                               ; preds = %64
  %69 = load i32, i32* %12, align 4
  %70 = sext i32 %69 to i64
  %71 = getelementptr inbounds [50 x [100 x i8]], [50 x [100 x i8]]* %3, i64 0, i64 %70
  %72 = getelementptr inbounds [100 x i8], [100 x i8]* %71, i64 0, i64 0
  %73 = call i64 @strlen(i8* %72) #3
  %74 = trunc i64 %73 to i32
  store i32 %74, i32* %4, align 4
  %75 = load i32, i32* %4, align 4
  %76 = load i32, i32* %7, align 4
  %77 = icmp sgt i32 %75, %76
  br i1 %77, label %78, label %81

78:                                               ; preds = %68
  %79 = load i32, i32* %12, align 4
  store i32 %79, i32* %5, align 4
  %80 = load i32, i32* %4, align 4
  store i32 %80, i32* %7, align 4
  br label %81

81:                                               ; preds = %78, %68
  %82 = load i32, i32* %4, align 4
  %83 = load i32, i32* %8, align 4
  %84 = icmp slt i32 %82, %83
  br i1 %84, label %85, label %88

85:                                               ; preds = %81
  %86 = load i32, i32* %12, align 4
  store i32 %86, i32* %6, align 4
  %87 = load i32, i32* %4, align 4
  store i32 %87, i32* %8, align 4
  br label %88

88:                                               ; preds = %85, %81
  br label %89

89:                                               ; preds = %88
  %90 = load i32, i32* %12, align 4
  %91 = add nsw i32 %90, 1
  store i32 %91, i32* %12, align 4
  br label %64

92:                                               ; preds = %64
  %93 = load i32, i32* %5, align 4
  %94 = sext i32 %93 to i64
  %95 = getelementptr inbounds [50 x [100 x i8]], [50 x [100 x i8]]* %3, i64 0, i64 %94
  %96 = getelementptr inbounds [100 x i8], [100 x i8]* %95, i64 0, i64 0
  %97 = load i32, i32* %6, align 4
  %98 = sext i32 %97 to i64
  %99 = getelementptr inbounds [50 x [100 x i8]], [50 x [100 x i8]]* %3, i64 0, i64 %98
  %100 = getelementptr inbounds [100 x i8], [100 x i8]* %99, i64 0, i64 0
  %101 = call i32 (i8*, ...) @printf(i8* getelementptr inbounds ([7 x i8], [7 x i8]* @.str, i64 0, i64 0), i8* %96, i8* %100)
  ret i32 0
}

declare dso_local i32 @gets(...) #1

; Function Attrs: nounwind readonly
declare dso_local i64 @strlen(i8*) #2

declare dso_local i32 @printf(i8*, ...) #1


!llvm.module.flags = !{!0}
!llvm.ident = !{!1}

!0 = !{i32 1, !"wchar_size", i32 4}
!1 = !{!"clang version 10.0.0-4ubuntu1 "}
